; Function Attrs: mustprogress uwtable
define void @_ZN6icu_7523RuleBasedTransliteratorC2ERKNS_13UnicodeStringEPKNS_23TransliterationRuleDataEPNS_13UnicodeFilterE(ptr noundef nonnull align 8 dereferenceable(97) %this, ptr noundef nonnull align 8 dereferenceable(64) %id, ptr noundef %theData, ptr noundef %adoptedFilter) unnamed_addr #1 align 2 personality ptr @__gxx_personality_v0 {
entry:
  tail call void @_ZN6icu_7514TransliteratorC2ERKNS_13UnicodeStringEPNS_13UnicodeFilterE(ptr noundef nonnull align 8 dereferenceable(84) %this, ptr noundef nonnull align 8 dereferenceable(64) %id, ptr noundef %adoptedFilter)
  store ptr getelementptr inbounds ({ [19 x ptr] }, ptr @_ZTVN6icu_7523RuleBasedTransliteratorE, i64 0, i32 0, i64 2), ptr %this, align 8
  %fData = getelementptr inbounds i8, ptr %this, i64 88
  store ptr %theData, ptr %fData, align 8
  %isDataOwned = getelementptr inbounds i8, ptr %this, i64 96
  store i8 0, ptr %isDataOwned, align 8
  %ruleSet = getelementptr inbounds i8, ptr %theData, i64 8
  %call = invoke noundef i32 @_ZNK6icu_7522TransliterationRuleSet23getMaximumContextLengthEv(ptr noundef nonnull align 8 dereferenceable(1056) %ruleSet)
          to label %invoke.cont unwind label %lpad

invoke.cont:                                      ; preds = %entry
  invoke void @_ZN6icu_7514Transliterator23setMaximumContextLengthEi(ptr noundef nonnull align 8 dereferenceable(84) %this, i32 noundef %call)
          to label %invoke.cont3 unwind label %lpad

invoke.cont3:                                     ; preds = %invoke.cont
  ret void

lpad:                                             ; preds = %invoke.cont, %entry
  %0 = landingpad { ptr, i32 }
          cleanup
  tail call void @_ZN6icu_7514TransliteratorD2Ev(ptr noundef nonnull align 8 dereferenceable(84) %this) #6
  resume { ptr, i32 } %0
}